target datalayout = "e-m:e-p270:32:32-p271:32:32-p272:64:64-i64:64-i128:128-f80:128-n8:16:32:64-S128"
target triple = "x86_64-pc-linux-gnu"

; Function Attrs: nounwind uwtable
define dso_local void @json_categorize_type(i32 noundef %0, i1 noundef zeroext %1, ptr noundef %2, ptr noundef %3) #0 {
  %5 = alloca i32, align 4
  %6 = alloca i8, align 1
  %7 = alloca ptr, align 8
  %8 = alloca ptr, align 8
  %9 = alloca i8, align 1
  %10 = alloca i32, align 4
  %11 = alloca i32, align 4
  store i32 %0, ptr %5, align 4
  %12 = zext i1 %1 to i8
  store i8 %12, ptr %6, align 1
  store ptr %2, ptr %7, align 8
  store ptr %3, ptr %8, align 8
  call void @llvm.lifetime.start.p0(i64 1, ptr %9) #10
  %13 = load i32, ptr %5, align 4
  %14 = call i32 @getBaseType(i32 noundef %13)
  store i32 %14, ptr %5, align 4
  %15 = load ptr, ptr %8, align 8
  store i32 0, ptr %15, align 4
  %16 = load i32, ptr %5, align 4
  switch i32 %16, label %44 [
    i32 16, label %17
    i32 21, label %20
    i32 23, label %20
    i32 20, label %20
    i32 700, label %20
    i32 701, label %20
    i32 1700, label %20
    i32 1082, label %24
    i32 1114, label %27
    i32 1184, label %30
    i32 114, label %33
    i32 3802, label %37
  ]

17:                                               ; preds = %4
  %18 = load ptr, ptr %8, align 8
  store i32 1243, ptr %18, align 4
  %19 = load ptr, ptr %7, align 8
  store i32 1, ptr %19, align 4
  br label %92

20:                                               ; preds = %4, %4, %4, %4, %4, %4
  %21 = load i32, ptr %5, align 4
  %22 = load ptr, ptr %8, align 8
  call void @getTypeOutputInfo(i32 noundef %21, ptr noundef %22, ptr noundef %9)
  %23 = load ptr, ptr %7, align 8
  store i32 2, ptr %23, align 4
  br label %92

24:                                               ; preds = %4
  %25 = load ptr, ptr %8, align 8
  store i32 1085, ptr %25, align 4
  %26 = load ptr, ptr %7, align 8
  store i32 3, ptr %26, align 4
  br label %92

27:                                               ; preds = %4
  %28 = load ptr, ptr %8, align 8
  store i32 1313, ptr %28, align 4
  %29 = load ptr, ptr %7, align 8
  store i32 4, ptr %29, align 4
  br label %92

30:                                               ; preds = %4
  %31 = load ptr, ptr %8, align 8
  store i32 1151, ptr %31, align 4
  %32 = load ptr, ptr %7, align 8
  store i32 5, ptr %32, align 4
  br label %92

33:                                               ; preds = %4
  %34 = load i32, ptr %5, align 4
  %35 = load ptr, ptr %8, align 8
  call void @getTypeOutputInfo(i32 noundef %34, ptr noundef %35, ptr noundef %9)
  %36 = load ptr, ptr %7, align 8
  store i32 6, ptr %36, align 4
  br label %92

37:                                               ; preds = %4
  %38 = load i32, ptr %5, align 4
  %39 = load ptr, ptr %8, align 8
  call void @getTypeOutputInfo(i32 noundef %38, ptr noundef %39, ptr noundef %9)
  %40 = load i8, ptr %6, align 1, !range !4, !noundef !5
  %41 = trunc i8 %40 to i1
  %42 = select i1 %41, i32 7, i32 6
  %43 = load ptr, ptr %7, align 8
  store i32 %42, ptr %43, align 4
  br label %92

44:                                               ; preds = %4
  %45 = load i32, ptr %5, align 4
  %46 = call i32 @get_element_type(i32 noundef %45)
  %47 = icmp ne i32 %46, 0
  br i1 %47, label %57, label %48

48:                                               ; preds = %44
  %49 = load i32, ptr %5, align 4
  %50 = icmp eq i32 %49, 2277
  br i1 %50, label %57, label %51

51:                                               ; preds = %48
  %52 = load i32, ptr %5, align 4
  %53 = icmp eq i32 %52, 5078
  br i1 %53, label %57, label %54

54:                                               ; preds = %51
  %55 = load i32, ptr %5, align 4
  %56 = icmp eq i32 %55, 2287
  br i1 %56, label %57, label %60

57:                                               ; preds = %54, %51, %48, %44
  %58 = load ptr, ptr %8, align 8
  store i32 751, ptr %58, align 4
  %59 = load ptr, ptr %7, align 8
  store i32 8, ptr %59, align 4
  br label %91

60:                                               ; preds = %54
  %61 = load i32, ptr %5, align 4
  %62 = call zeroext i1 @type_is_rowtype(i32 noundef %61)
  br i1 %62, label %63, label %66

63:                                               ; preds = %60
  %64 = load ptr, ptr %8, align 8
  store i32 2291, ptr %64, align 4
  %65 = load ptr, ptr %7, align 8
  store i32 9, ptr %65, align 4
  br label %90

66:                                               ; preds = %60
  %67 = load ptr, ptr %7, align 8
  store i32 11, ptr %67, align 4
  %68 = load i32, ptr %5, align 4
  %69 = icmp uge i32 %68, 16384
  br i1 %69, label %70, label %86

70:                                               ; preds = %66
  call void @llvm.lifetime.start.p0(i64 4, ptr %10) #10
  call void @llvm.lifetime.start.p0(i64 4, ptr %11) #10
  %71 = load i32, ptr %5, align 4
  %72 = call i32 @find_coercion_pathway(i32 noundef 114, i32 noundef %71, i32 noundef 3, ptr noundef %10)
  store i32 %72, ptr %11, align 4
  %73 = load i32, ptr %11, align 4
  %74 = icmp eq i32 %73, 1
  br i1 %74, label %75, label %82

75:                                               ; preds = %70
  %76 = load i32, ptr %10, align 4
  %77 = icmp ne i32 %76, 0
  br i1 %77, label %78, label %82

78:                                               ; preds = %75
  %79 = load i32, ptr %10, align 4
  %80 = load ptr, ptr %8, align 8
  store i32 %79, ptr %80, align 4
  %81 = load ptr, ptr %7, align 8
  store i32 10, ptr %81, align 4
  br label %85

82:                                               ; preds = %75, %70
  %83 = load i32, ptr %5, align 4
  %84 = load ptr, ptr %8, align 8
  call void @getTypeOutputInfo(i32 noundef %83, ptr noundef %84, ptr noundef %9)
  br label %85

85:                                               ; preds = %82, %78
  call void @llvm.lifetime.end.p0(i64 4, ptr %11) #10
  call void @llvm.lifetime.end.p0(i64 4, ptr %10) #10
  br label %89

86:                                               ; preds = %66
  %87 = load i32, ptr %5, align 4
  %88 = load ptr, ptr %8, align 8
  call void @getTypeOutputInfo(i32 noundef %87, ptr noundef %88, ptr noundef %9)
  br label %89

89:                                               ; preds = %86, %85
  br label %90

90:                                               ; preds = %89, %63
  br label %91

91:                                               ; preds = %90, %57
  br label %92

92:                                               ; preds = %91, %37, %33, %30, %27, %24, %20, %17
  call void @llvm.lifetime.end.p0(i64 1, ptr %9) #10
  ret void
}