; Function Attrs: nounwind uwtable
define dso_local void @json_categorize_type(i32 noundef %0, i1 noundef zeroext %1, ptr noundef writeonly captures(none) initializes((0, 4)) %2, ptr noundef initializes((0, 4)) %3) local_unnamed_addr #0 {
  %5 = alloca i8, align 1
  %6 = alloca i32, align 4
  call void @llvm.lifetime.start.p0(i64 1, ptr nonnull %5) #15
  %7 = tail call i32 @getBaseType(i32 noundef %0) #15
  store i32 0, ptr %3, align 4
  switch i32 %7, label %16 [
    i32 16, label %8
    i32 21, label %9
    i32 23, label %9
    i32 20, label %9
    i32 700, label %9
    i32 701, label %9
    i32 1700, label %9
    i32 1082, label %10
    i32 1114, label %11
    i32 1184, label %12
    i32 114, label %13
    i32 3802, label %14
  ]

8:                                                ; preds = %4
  store i32 1243, ptr %3, align 4
  store i32 1, ptr %2, align 4
  br label %33

9:                                                ; preds = %4, %4, %4, %4, %4, %4
  call void @getTypeOutputInfo(i32 noundef %7, ptr noundef nonnull %3, ptr noundef nonnull %5) #15
  store i32 2, ptr %2, align 4
  br label %33

10:                                               ; preds = %4
  store i32 1085, ptr %3, align 4
  store i32 3, ptr %2, align 4
  br label %33

11:                                               ; preds = %4
  store i32 1313, ptr %3, align 4
  store i32 4, ptr %2, align 4
  br label %33

12:                                               ; preds = %4
  store i32 1151, ptr %3, align 4
  store i32 5, ptr %2, align 4
  br label %33

13:                                               ; preds = %4
  call void @getTypeOutputInfo(i32 noundef 114, ptr noundef nonnull %3, ptr noundef nonnull %5) #15
  store i32 6, ptr %2, align 4
  br label %33

14:                                               ; preds = %4
  call void @getTypeOutputInfo(i32 noundef 3802, ptr noundef nonnull %3, ptr noundef nonnull %5) #15
  %15 = select i1 %1, i32 7, i32 6
  store i32 %15, ptr %2, align 4
  br label %33

16:                                               ; preds = %4
  %17 = tail call i32 @get_element_type(i32 noundef %7) #15
  %.fr = freeze i32 %17
  %.not = icmp eq i32 %.fr, 0
  br i1 %.not, label %switch.early.test, label %18

switch.early.test:                                ; preds = %16
  switch i32 %7, label %19 [
    i32 5078, label %18
    i32 2287, label %18
    i32 2277, label %18
  ]

18:                                               ; preds = %switch.early.test, %switch.early.test, %switch.early.test, %16
  store i32 751, ptr %3, align 4
  store i32 8, ptr %2, align 4
  br label %33

19:                                               ; preds = %switch.early.test
  %20 = tail call zeroext i1 @type_is_rowtype(i32 noundef %7) #15
  br i1 %20, label %21, label %22

21:                                               ; preds = %19
  store i32 2291, ptr %3, align 4
  store i32 9, ptr %2, align 4
  br label %33

22:                                               ; preds = %19
  store i32 11, ptr %2, align 4
  %23 = icmp ugt i32 %7, 16383
  br i1 %23, label %24, label %32

24:                                               ; preds = %22
  call void @llvm.lifetime.start.p0(i64 4, ptr nonnull %6) #15
  %25 = call i32 @find_coercion_pathway(i32 noundef 114, i32 noundef %7, i32 noundef 3, ptr noundef nonnull %6) #15
  %26 = icmp eq i32 %25, 1
  %27 = load i32, ptr %6, align 4
  %28 = icmp ne i32 %27, 0
  %or.cond7 = select i1 %26, i1 %28, i1 false
  br i1 %or.cond7, label %29, label %30

29:                                               ; preds = %24
  store i32 %27, ptr %3, align 4
  store i32 10, ptr %2, align 4
  br label %31

30:                                               ; preds = %24
  call void @getTypeOutputInfo(i32 noundef %7, ptr noundef nonnull %3, ptr noundef nonnull %5) #15
  br label %31

31:                                               ; preds = %30, %29
  call void @llvm.lifetime.end.p0(i64 4, ptr nonnull %6) #15
  br label %33

32:                                               ; preds = %22
  call void @getTypeOutputInfo(i32 noundef %7, ptr noundef nonnull %3, ptr noundef nonnull %5) #15
  br label %33

33:                                               ; preds = %18, %31, %32, %21, %14, %13, %12, %11, %10, %9, %8
  call void @llvm.lifetime.end.p0(i64 1, ptr nonnull %5) #15
  ret void
}